target datalayout = "e-m:e-p270:32:32-p271:32:32-p272:64:64-i64:64-i128:128-f80:128-n8:16:32:64-S128"
target triple = "x86_64-pc-linux-gnu"

%"class.cv::Mat" = type { i32, i32, i32, i32, ptr, ptr, ptr, ptr, ptr, ptr, %"struct.cv::MatSize", %"struct.cv::MatStep" }
%"struct.cv::MatSize" = type { ptr }
%"struct.cv::MatStep" = type { ptr, [2 x i64] }
%"class.cv::Vec.11" = type { %"class.cv::Matx.12" }
%"class.cv::Matx.12" = type { [3 x float] }

@.str.46 = private unnamed_addr constant [3 x i8] c"wt\00", align 1
@.str.47 = private unnamed_addr constant [10 x i8] c"%f %f %f\0A\00", align 1

; Function Attrs: inlinehint mustprogress nounwind uwtable
define linkonce_odr hidden void @_ZN2cv4MatxIfLi3ELi1EEC2EPKf(ptr noundef nonnull align 4 dereferenceable(12) %0, ptr noundef %1) unnamed_addr #8 comdat align 2 {
  %3 = alloca ptr, align 8
  %4 = alloca ptr, align 8
  %5 = alloca i32, align 4
  store ptr %0, ptr %3, align 8, !tbaa !114
  store ptr %1, ptr %4, align 8, !tbaa !116
  %6 = load ptr, ptr %3, align 8
  call void @llvm.lifetime.start.p0(i64 4, ptr %5) #3
  store i32 0, ptr %5, align 4, !tbaa !4
  br label %7

7:                                                ; preds = %21, %2
  %8 = load i32, ptr %5, align 4, !tbaa !4
  %9 = icmp slt i32 %8, 3
  br i1 %9, label %11, label %10

10:                                               ; preds = %7
  call void @llvm.lifetime.end.p0(i64 4, ptr %5) #3
  br label %24

11:                                               ; preds = %7
  %12 = load ptr, ptr %4, align 8, !tbaa !116
  %13 = load i32, ptr %5, align 4, !tbaa !4
  %14 = sext i32 %13 to i64
  %15 = getelementptr inbounds float, ptr %12, i64 %14
  %16 = load float, ptr %15, align 4, !tbaa !12
  %17 = getelementptr inbounds nuw %"class.cv::Matx.12", ptr %6, i32 0, i32 0
  %18 = load i32, ptr %5, align 4, !tbaa !4
  %19 = sext i32 %18 to i64
  %20 = getelementptr inbounds [3 x float], ptr %17, i64 0, i64 %19
  store float %16, ptr %20, align 4, !tbaa !12
  br label %21

21:                                               ; preds = %11
  %22 = load i32, ptr %5, align 4, !tbaa !4
  %23 = add nsw i32 %22, 1
  store i32 %23, ptr %5, align 4, !tbaa !4
  br label %7, !llvm.loop !118

24:                                               ; preds = %10
  ret void
}

; Function Attrs: inlinehint mustprogress nounwind uwtable
define linkonce_odr hidden noundef nonnull align 4 dereferenceable(4) ptr @_ZN2cv3VecIfLi3EEixEi(ptr noundef nonnull align 4 dereferenceable(12) %0, i32 noundef %1) #8 comdat align 2 {
  %3 = alloca ptr, align 8
  %4 = alloca i32, align 4
  store ptr %0, ptr %3, align 8, !tbaa !112
  store i32 %1, ptr %4, align 4, !tbaa !4
  %5 = load ptr, ptr %3, align 8
  %6 = getelementptr inbounds nuw %"class.cv::Matx.12", ptr %5, i32 0, i32 0
  %7 = load i32, ptr %4, align 4, !tbaa !4
  %8 = sext i32 %7 to i64
  %9 = getelementptr inbounds [3 x float], ptr %6, i64 0, i64 %8
  ret ptr %9
}

; Function Attrs: inlinehint mustprogress uwtable
define linkonce_odr hidden void @_ZN2cv3VecIfLi3EEC2ERKS1_(ptr noundef nonnull align 4 dereferenceable(12) %0, ptr noundef nonnull align 4 dereferenceable(12) %1) unnamed_addr #9 comdat align 2 {
  %3 = alloca ptr, align 8
  %4 = alloca ptr, align 8
  store ptr %0, ptr %3, align 8, !tbaa !112
  store ptr %1, ptr %4, align 8, !tbaa !112
  %5 = load ptr, ptr %3, align 8
  %6 = load ptr, ptr %4, align 8, !tbaa !112
  %7 = getelementptr inbounds nuw %"class.cv::Matx.12", ptr %6, i32 0, i32 0
  %8 = getelementptr inbounds [3 x float], ptr %7, i64 0, i64 0
  call void @_ZN2cv4MatxIfLi3ELi1EEC2EPKf(ptr noundef nonnull align 4 dereferenceable(12) %5, ptr noundef %8)
  ret void
}

; Function Attrs: inlinehint mustprogress nounwind uwtable
define linkonce_odr hidden noundef nonnull align 4 dereferenceable(12) ptr @_ZNK2cv3Mat2atINS_3VecIfLi3EEEEERKT_ii(ptr noundef nonnull align 8 dereferenceable(96) %0, i32 noundef %1, i32 noundef %2) #8 comdat align 2 {
  %4 = alloca ptr, align 8
  %5 = alloca i32, align 4
  %6 = alloca i32, align 4
  store ptr %0, ptr %4, align 8, !tbaa !43
  store i32 %1, ptr %5, align 4, !tbaa !4
  store i32 %2, ptr %6, align 4, !tbaa !4
  %7 = load ptr, ptr %4, align 8
  %8 = getelementptr inbounds nuw %"class.cv::Mat", ptr %7, i32 0, i32 4
  %9 = load ptr, ptr %8, align 8, !tbaa !110
  %10 = getelementptr inbounds nuw %"class.cv::Mat", ptr %7, i32 0, i32 11
  %11 = getelementptr inbounds nuw %"struct.cv::MatStep", ptr %10, i32 0, i32 0
  %12 = load ptr, ptr %11, align 8, !tbaa !111
  %13 = getelementptr inbounds i64, ptr %12, i64 0
  %14 = load i64, ptr %13, align 8, !tbaa !24
  %15 = load i32, ptr %5, align 4, !tbaa !4
  %16 = sext i32 %15 to i64
  %17 = mul i64 %14, %16
  %18 = getelementptr inbounds nuw i8, ptr %9, i64 %17
  %19 = load i32, ptr %6, align 4, !tbaa !4
  %20 = sext i32 %19 to i64
  %21 = getelementptr inbounds %"class.cv::Vec.11", ptr %18, i64 %20
  ret ptr %21
}

; Function Attrs: mustprogress uwtable
define internal void @_ZL7saveXYZPKcRKN2cv3MatE(ptr noundef %0, ptr noundef nonnull align 8 dereferenceable(96) %1) #7 {
  %3 = alloca ptr, align 8
  %4 = alloca ptr, align 8
  %5 = alloca double, align 8
  %6 = alloca ptr, align 8
  %7 = alloca i32, align 4
  %8 = alloca i32, align 4
  %9 = alloca i32, align 4
  %10 = alloca %"class.cv::Vec.11", align 4
  store ptr %0, ptr %3, align 8, !tbaa !36
  store ptr %1, ptr %4, align 8, !tbaa !43
  call void @llvm.lifetime.start.p0(i64 8, ptr %5) #3
  store double 1.000000e+04, ptr %5, align 8, !tbaa !16
  call void @llvm.lifetime.start.p0(i64 8, ptr %6) #3
  %11 = load ptr, ptr %3, align 8, !tbaa !36
  %12 = call noalias ptr @fopen(ptr noundef %11, ptr noundef @.str.46)
  store ptr %12, ptr %6, align 8, !tbaa !28
  call void @llvm.lifetime.start.p0(i64 4, ptr %7) #3
  store i32 0, ptr %7, align 4, !tbaa !4
  br label %13

13:                                               ; preds = %65, %2
  %14 = load i32, ptr %7, align 4, !tbaa !4
  %15 = load ptr, ptr %4, align 8, !tbaa !43
  %16 = getelementptr inbounds nuw %"class.cv::Mat", ptr %15, i32 0, i32 2
  %17 = load i32, ptr %16, align 8, !tbaa !83
  %18 = icmp slt i32 %14, %17
  br i1 %18, label %20, label %19

19:                                               ; preds = %13
  store i32 2, ptr %8, align 4
  call void @llvm.lifetime.end.p0(i64 4, ptr %7) #3
  br label %68

20:                                               ; preds = %13
  call void @llvm.lifetime.start.p0(i64 4, ptr %9) #3
  store i32 0, ptr %9, align 4, !tbaa !4
  br label %21

21:                                               ; preds = %61, %20
  %22 = load i32, ptr %9, align 4, !tbaa !4
  %23 = load ptr, ptr %4, align 8, !tbaa !43
  %24 = getelementptr inbounds nuw %"class.cv::Mat", ptr %23, i32 0, i32 3
  %25 = load i32, ptr %24, align 4, !tbaa !84
  %26 = icmp slt i32 %22, %25
  br i1 %26, label %28, label %27

27:                                               ; preds = %21
  store i32 5, ptr %8, align 4
  call void @llvm.lifetime.end.p0(i64 4, ptr %9) #3
  br label %64

28:                                               ; preds = %21
  call void @llvm.lifetime.start.p0(i64 12, ptr %10) #3
  %29 = load ptr, ptr %4, align 8, !tbaa !43
  %30 = load i32, ptr %7, align 4, !tbaa !4
  %31 = load i32, ptr %9, align 4, !tbaa !4
  %32 = call noundef nonnull align 4 dereferenceable(12) ptr @_ZNK2cv3Mat2atINS_3VecIfLi3EEEEERKT_ii(ptr noundef nonnull align 8 dereferenceable(96) %29, i32 noundef %30, i32 noundef %31)
  call void @_ZN2cv3VecIfLi3EEC2ERKS1_(ptr noundef nonnull align 4 dereferenceable(12) %10, ptr noundef nonnull align 4 dereferenceable(12) %32)
  %33 = call noundef nonnull align 4 dereferenceable(4) ptr @_ZN2cv3VecIfLi3EEixEi(ptr noundef nonnull align 4 dereferenceable(12) %10, i32 noundef 2)
  %34 = load float, ptr %33, align 4, !tbaa !12
  %35 = fpext float %34 to double
  %36 = fsub double %35, 1.000000e+04
  %37 = call double @llvm.fabs.f64(double %36)
  %38 = fcmp olt double %37, 0x3E80000000000000
  br i1 %38, label %45, label %39

39:                                               ; preds = %28
  %40 = call noundef nonnull align 4 dereferenceable(4) ptr @_ZN2cv3VecIfLi3EEixEi(ptr noundef nonnull align 4 dereferenceable(12) %10, i32 noundef 2)
  %41 = load float, ptr %40, align 4, !tbaa !12
  %42 = fpext float %41 to double
  %43 = call double @llvm.fabs.f64(double %42)
  %44 = fcmp ogt double %43, 1.000000e+04
  br i1 %44, label %45, label %46

45:                                               ; preds = %39, %28
  store i32 7, ptr %8, align 4
  br label %58

46:                                               ; preds = %39
  %47 = load ptr, ptr %6, align 8, !tbaa !28
  %48 = call noundef nonnull align 4 dereferenceable(4) ptr @_ZN2cv3VecIfLi3EEixEi(ptr noundef nonnull align 4 dereferenceable(12) %10, i32 noundef 0)
  %49 = load float, ptr %48, align 4, !tbaa !12
  %50 = fpext float %49 to double
  %51 = call noundef nonnull align 4 dereferenceable(4) ptr @_ZN2cv3VecIfLi3EEixEi(ptr noundef nonnull align 4 dereferenceable(12) %10, i32 noundef 1)
  %52 = load float, ptr %51, align 4, !tbaa !12
  %53 = fpext float %52 to double
  %54 = call noundef nonnull align 4 dereferenceable(4) ptr @_ZN2cv3VecIfLi3EEixEi(ptr noundef nonnull align 4 dereferenceable(12) %10, i32 noundef 2)
  %55 = load float, ptr %54, align 4, !tbaa !12
  %56 = fpext float %55 to double
  %57 = call i32 (ptr, ptr, ...) @fprintf(ptr noundef %47, ptr noundef @.str.47, double noundef %50, double noundef %53, double noundef %56) #3
  store i32 0, ptr %8, align 4
  br label %58

58:                                               ; preds = %46, %45
  call void @llvm.lifetime.end.p0(i64 12, ptr %10) #3
  %59 = load i32, ptr %8, align 4
  switch i32 %59, label %71 [
    i32 0, label %60
    i32 7, label %61
  ]

60:                                               ; preds = %58
  br label %61

61:                                               ; preds = %60, %58
  %62 = load i32, ptr %9, align 4, !tbaa !4
  %63 = add nsw i32 %62, 1
  store i32 %63, ptr %9, align 4, !tbaa !4
  br label %21, !llvm.loop !85

64:                                               ; preds = %27
  br label %65

65:                                               ; preds = %64
  %66 = load i32, ptr %7, align 4, !tbaa !4
  %67 = add nsw i32 %66, 1
  store i32 %67, ptr %7, align 4, !tbaa !4
  br label %13, !llvm.loop !86

68:                                               ; preds = %19
  %69 = load ptr, ptr %6, align 8, !tbaa !28
  %70 = call i32 @fclose(ptr noundef %69)
  call void @llvm.lifetime.end.p0(i64 8, ptr %6) #3
  call void @llvm.lifetime.end.p0(i64 8, ptr %5) #3
  ret void

71:                                               ; preds = %58
  unreachable
}