; Function Attrs: mustprogress nofree norecurse nounwind uwtable
define internal fastcc void @_ZL7saveXYZPKcRKN2cv3MatE(ptr noundef readonly captures(none) %0, ptr noundef nonnull readonly align 8 captures(none) dereferenceable(96) %1) unnamed_addr #10 {
  %3 = tail call noalias ptr @fopen(ptr noundef %0, ptr noundef nonnull @.str.46)
  %4 = getelementptr inbounds nuw i8, ptr %1, i64 8
  %5 = load i32, ptr %4, align 8, !tbaa !78
  %6 = icmp sgt i32 %5, 0
  br i1 %6, label %.preheader.lr.ph, label %._crit_edge15

.preheader.lr.ph:                                 ; preds = %2
  %7 = getelementptr inbounds nuw i8, ptr %1, i64 12
  %8 = getelementptr inbounds nuw i8, ptr %1, i64 16
  %9 = getelementptr inbounds nuw i8, ptr %1, i64 72
  %10 = load i32, ptr %7, align 4, !tbaa !79
  %11 = icmp sgt i32 %10, 0
  br i1 %11, label %.preheader, label %._crit_edge15

.preheader:                                       ; preds = %.preheader.lr.ph, %._crit_edge
  %12 = phi i32 [ %17, %._crit_edge ], [ %5, %.preheader.lr.ph ]
  %13 = phi i32 [ %18, %._crit_edge ], [ %10, %.preheader.lr.ph ]
  %14 = phi i32 [ %19, %._crit_edge ], [ %10, %.preheader.lr.ph ]
  %indvars.iv18 = phi i64 [ %indvars.iv.next19, %._crit_edge ], [ 0, %.preheader.lr.ph ]
  %15 = icmp sgt i32 %14, 0
  br i1 %15, label %_ZN2cv3VecIfLi3EEC2ERKS1_.exit, label %._crit_edge

._crit_edge15:                                    ; preds = %._crit_edge, %.preheader.lr.ph, %2
  %16 = tail call i32 @fclose(ptr noundef %3)
  ret void

._crit_edge.loopexit:                             ; preds = %39
  %.pre21 = load i32, ptr %4, align 8, !tbaa !78
  br label %._crit_edge

._crit_edge:                                      ; preds = %._crit_edge.loopexit, %.preheader
  %17 = phi i32 [ %.pre21, %._crit_edge.loopexit ], [ %12, %.preheader ]
  %18 = phi i32 [ %40, %._crit_edge.loopexit ], [ %13, %.preheader ]
  %19 = phi i32 [ %40, %._crit_edge.loopexit ], [ %14, %.preheader ]
  %indvars.iv.next19 = add nuw nsw i64 %indvars.iv18, 1
  %20 = sext i32 %17 to i64
  %21 = icmp slt i64 %indvars.iv.next19, %20
  br i1 %21, label %.preheader, label %._crit_edge15, !llvm.loop !80

_ZN2cv3VecIfLi3EEC2ERKS1_.exit:                   ; preds = %.preheader, %39
  %22 = phi i32 [ %40, %39 ], [ %13, %.preheader ]
  %indvars.iv = phi i64 [ %indvars.iv.next, %39 ], [ 0, %.preheader ]
  %23 = load ptr, ptr %8, align 8, !tbaa !82
  %24 = load ptr, ptr %9, align 8, !tbaa !83
  %25 = load i64, ptr %24, align 8, !tbaa !14
  %26 = mul i64 %25, %indvars.iv18
  %27 = getelementptr inbounds nuw i8, ptr %23, i64 %26
  %28 = getelementptr inbounds nuw %"class.cv::Vec.11", ptr %27, i64 %indvars.iv
  %.sroa.5.0..sroa_idx = getelementptr inbounds nuw i8, ptr %28, i64 8
  %.sroa.5.0.copyload = load float, ptr %.sroa.5.0..sroa_idx, align 4, !tbaa !28
  %29 = fpext float %.sroa.5.0.copyload to double
  %30 = fadd double %29, -1.000000e+04
  %31 = tail call double @llvm.fabs.f64(double %30)
  %32 = fcmp olt double %31, 0x3E80000000000000
  %33 = tail call float @llvm.fabs.f32(float %.sroa.5.0.copyload)
  %34 = fcmp ogt float %33, 1.000000e+04
  %or.cond = select i1 %32, i1 true, i1 %34
  br i1 %or.cond, label %39, label %35

35:                                               ; preds = %_ZN2cv3VecIfLi3EEC2ERKS1_.exit
  %.sroa.4.0..sroa_idx = getelementptr inbounds nuw i8, ptr %28, i64 4
  %.sroa.4.0.copyload = load float, ptr %.sroa.4.0..sroa_idx, align 4, !tbaa !28
  %.sroa.0.0.copyload = load float, ptr %28, align 4, !tbaa !28
  %36 = fpext float %.sroa.0.0.copyload to double
  %37 = fpext float %.sroa.4.0.copyload to double
  %38 = tail call i32 (ptr, ptr, ...) @fprintf(ptr noundef %3, ptr noundef nonnull @.str.47, double noundef %36, double noundef %37, double noundef %29) #19
  %.pre = load i32, ptr %7, align 4, !tbaa !79
  br label %39

39:                                               ; preds = %_ZN2cv3VecIfLi3EEC2ERKS1_.exit, %35
  %40 = phi i32 [ %22, %_ZN2cv3VecIfLi3EEC2ERKS1_.exit ], [ %.pre, %35 ]
  %indvars.iv.next = add nuw nsw i64 %indvars.iv, 1
  %41 = sext i32 %40 to i64
  %42 = icmp slt i64 %indvars.iv.next, %41
  br i1 %42, label %_ZN2cv3VecIfLi3EEC2ERKS1_.exit, label %._crit_edge.loopexit, !llvm.loop !84
}